target datalayout = "e-m:e-p270:32:32-p271:32:32-p272:64:64-i64:64-i128:128-f80:128-n8:16:32:64-S128"
target triple = "x86_64-pc-linux-gnu"

%"class.clang::SourceLocation" = type { i32 }
%"class.clang::TypeLoc" = type { ptr, ptr }
%"class.clang::UnqualTypeLoc" = type { %"class.clang::TypeLoc" }
%"class.clang::DependentTemplateSpecializationTypeLoc" = type { %"class.clang::ConcreteTypeLoc.364" }
%"class.clang::ConcreteTypeLoc.364" = type { %"class.clang::UnqualTypeLoc" }
%"class.clang::TemplateSpecializationTypeLoc" = type { %"class.clang::ConcreteTypeLoc.398" }
%"class.clang::ConcreteTypeLoc.398" = type { %"class.clang::UnqualTypeLoc" }
%"struct.clang::ElaboratedLocInfo" = type { %"class.clang::SourceLocation", ptr }
%"struct.clang::DependentTemplateSpecializationLocInfo" = type { %"struct.clang::DependentNameLocInfo.base", %"class.clang::SourceLocation", %"class.clang::SourceLocation", %"class.clang::SourceLocation" }
%"struct.clang::DependentNameLocInfo.base" = type <{ %"struct.clang::ElaboratedLocInfo", %"class.clang::SourceLocation" }>
%"struct.clang::TemplateSpecializationLocInfo" = type { %"struct.clang::TemplateNameLocInfo", %"class.clang::SourceLocation", %"class.clang::SourceLocation", %"class.clang::SourceLocation" }
%"struct.clang::TemplateNameLocInfo" = type { %"class.clang::SourceLocation" }

; Function Attrs: mustprogress nounwind uwtable
define linkonce_odr hidden noundef ptr @_ZNK5clang15ConcreteTypeLocINS_13UnqualTypeLocENS_38DependentTemplateSpecializationTypeLocENS_35DependentTemplateSpecializationTypeENS_38DependentTemplateSpecializationLocInfoEE12getLocalDataEv(ptr noundef nonnull align 8 dereferenceable(16) %0) #0 comdat align 2 {
  %2 = alloca ptr, align 8
  store ptr %0, ptr %2, align 8
  %3 = load ptr, ptr %2, align 8
  %4 = getelementptr inbounds nuw %"class.clang::TypeLoc", ptr %3, i32 0, i32 1
  %5 = load ptr, ptr %4, align 8
  ret ptr %5
}

; Function Attrs: mustprogress nounwind uwtable
define linkonce_odr hidden noundef ptr @_ZNK5clang15ConcreteTypeLocINS_13UnqualTypeLocENS_29TemplateSpecializationTypeLocENS_26TemplateSpecializationTypeENS_29TemplateSpecializationLocInfoEE12getLocalDataEv(ptr noundef nonnull align 8 dereferenceable(16) %0) #0 comdat align 2 {
  %2 = alloca ptr, align 8
  store ptr %0, ptr %2, align 8
  %3 = load ptr, ptr %2, align 8
  %4 = getelementptr inbounds nuw %"class.clang::TypeLoc", ptr %3, i32 0, i32 1
  %5 = load ptr, ptr %4, align 8
  ret ptr %5
}

; Function Attrs: mustprogress nounwind uwtable
define linkonce_odr hidden void @_ZN5clang14SourceLocationC2Ev(ptr noundef nonnull align 4 dereferenceable(4) %0) unnamed_addr #0 comdat align 2 {
  %2 = alloca ptr, align 8
  store ptr %0, ptr %2, align 8
  %3 = load ptr, ptr %2, align 8
  %4 = getelementptr inbounds nuw %"class.clang::SourceLocation", ptr %3, i32 0, i32 0
  store i32 0, ptr %4, align 4
  ret void
}

; Function Attrs: mustprogress nounwind uwtable
define linkonce_odr hidden i32 @_ZNK5clang38DependentTemplateSpecializationTypeLoc21getTemplateKeywordLocEv(ptr noundef nonnull align 8 dereferenceable(16) %0) #0 comdat align 2 {
  %2 = alloca %"class.clang::SourceLocation", align 4
  %3 = alloca ptr, align 8
  store ptr %0, ptr %3, align 8
  %4 = load ptr, ptr %3, align 8
  %5 = call noundef ptr @_ZNK5clang15ConcreteTypeLocINS_13UnqualTypeLocENS_38DependentTemplateSpecializationTypeLocENS_35DependentTemplateSpecializationTypeENS_38DependentTemplateSpecializationLocInfoEE12getLocalDataEv(ptr noundef nonnull align 8 dereferenceable(16) %4)
  %6 = getelementptr inbounds nuw %"struct.clang::DependentTemplateSpecializationLocInfo", ptr %5, i32 0, i32 1
  call void @llvm.memcpy.p0.p0.i64(ptr align 4 %2, ptr align 4 %6, i64 4, i1 false)
  %7 = getelementptr inbounds nuw %"class.clang::SourceLocation", ptr %2, i32 0, i32 0
  %8 = load i32, ptr %7, align 4
  ret i32 %8
}

; Function Attrs: mustprogress nounwind uwtable
define linkonce_odr hidden i32 @_ZNK5clang29TemplateSpecializationTypeLoc21getTemplateKeywordLocEv(ptr noundef nonnull align 8 dereferenceable(16) %0) #0 comdat align 2 {
  %2 = alloca %"class.clang::SourceLocation", align 4
  %3 = alloca ptr, align 8
  store ptr %0, ptr %3, align 8
  %4 = load ptr, ptr %3, align 8
  %5 = call noundef ptr @_ZNK5clang15ConcreteTypeLocINS_13UnqualTypeLocENS_29TemplateSpecializationTypeLocENS_26TemplateSpecializationTypeENS_29TemplateSpecializationLocInfoEE12getLocalDataEv(ptr noundef nonnull align 8 dereferenceable(16) %4)
  %6 = getelementptr inbounds nuw %"struct.clang::TemplateSpecializationLocInfo", ptr %5, i32 0, i32 1
  call void @llvm.memcpy.p0.p0.i64(ptr align 4 %2, ptr align 4 %6, i64 4, i1 false)
  %7 = getelementptr inbounds nuw %"class.clang::SourceLocation", ptr %2, i32 0, i32 0
  %8 = load i32, ptr %7, align 4
  ret i32 %8
}

; Function Attrs: mustprogress nounwind uwtable
define linkonce_odr hidden noundef zeroext i1 @_ZNK5clang7TypeLoccvbEv(ptr noundef nonnull align 8 dereferenceable(16) %0) #0 comdat align 2 {
  %2 = alloca ptr, align 8
  store ptr %0, ptr %2, align 8
  %3 = load ptr, ptr %2, align 8
  %4 = getelementptr inbounds nuw %"class.clang::TypeLoc", ptr %3, i32 0, i32 0
  %5 = load ptr, ptr %4, align 8
  %6 = icmp ne ptr %5, null
  ret i1 %6
}

; Function Attrs: mustprogress nounwind uwtable
define dso_local i32 @_ZNK5clang7TypeLoc21getTemplateKeywordLocEv(ptr noundef nonnull align 8 dereferenceable(16) %0) #0 align 2 {
  %2 = alloca %"class.clang::SourceLocation", align 4
  %3 = alloca ptr, align 8
  %4 = alloca %"class.clang::TemplateSpecializationTypeLoc", align 8
  %5 = alloca %"class.clang::DependentTemplateSpecializationTypeLoc", align 8
  store ptr %0, ptr %3, align 8
  %6 = load ptr, ptr %3, align 8
  %7 = call { ptr, ptr } @_ZNK5clang7TypeLoc13getAsAdjustedINS_29TemplateSpecializationTypeLocEEET_v(ptr noundef nonnull align 8 dereferenceable(16) %6)
  %8 = getelementptr inbounds nuw %"class.clang::TemplateSpecializationTypeLoc", ptr %4, i32 0, i32 0
  %9 = getelementptr inbounds nuw %"class.clang::ConcreteTypeLoc.398", ptr %8, i32 0, i32 0
  %10 = getelementptr inbounds nuw %"class.clang::UnqualTypeLoc", ptr %9, i32 0, i32 0
  %11 = getelementptr inbounds nuw { ptr, ptr }, ptr %10, i32 0, i32 0
  %12 = extractvalue { ptr, ptr } %7, 0
  store ptr %12, ptr %11, align 8
  %13 = getelementptr inbounds nuw { ptr, ptr }, ptr %10, i32 0, i32 1
  %14 = extractvalue { ptr, ptr } %7, 1
  store ptr %14, ptr %13, align 8
  %15 = call noundef zeroext i1 @_ZNK5clang7TypeLoccvbEv(ptr noundef nonnull align 8 dereferenceable(16) %4)
  br i1 %15, label %16, label %19

16:                                               ; preds = %1
  %17 = call i32 @_ZNK5clang29TemplateSpecializationTypeLoc21getTemplateKeywordLocEv(ptr noundef nonnull align 8 dereferenceable(16) %4)
  %18 = getelementptr inbounds nuw %"class.clang::SourceLocation", ptr %2, i32 0, i32 0
  store i32 %17, ptr %18, align 4
  br label %33

19:                                               ; preds = %1
  %20 = call { ptr, ptr } @_ZNK5clang7TypeLoc13getAsAdjustedINS_38DependentTemplateSpecializationTypeLocEEET_v(ptr noundef nonnull align 8 dereferenceable(16) %6)
  %21 = getelementptr inbounds nuw %"class.clang::DependentTemplateSpecializationTypeLoc", ptr %5, i32 0, i32 0
  %22 = getelementptr inbounds nuw %"class.clang::ConcreteTypeLoc.364", ptr %21, i32 0, i32 0
  %23 = getelementptr inbounds nuw %"class.clang::UnqualTypeLoc", ptr %22, i32 0, i32 0
  %24 = getelementptr inbounds nuw { ptr, ptr }, ptr %23, i32 0, i32 0
  %25 = extractvalue { ptr, ptr } %20, 0
  store ptr %25, ptr %24, align 8
  %26 = getelementptr inbounds nuw { ptr, ptr }, ptr %23, i32 0, i32 1
  %27 = extractvalue { ptr, ptr } %20, 1
  store ptr %27, ptr %26, align 8
  %28 = call noundef zeroext i1 @_ZNK5clang7TypeLoccvbEv(ptr noundef nonnull align 8 dereferenceable(16) %5)
  br i1 %28, label %29, label %32

29:                                               ; preds = %19
  %30 = call i32 @_ZNK5clang38DependentTemplateSpecializationTypeLoc21getTemplateKeywordLocEv(ptr noundef nonnull align 8 dereferenceable(16) %5)
  %31 = getelementptr inbounds nuw %"class.clang::SourceLocation", ptr %2, i32 0, i32 0
  store i32 %30, ptr %31, align 4
  br label %33

32:                                               ; preds = %19
  call void @llvm.memset.p0.i64(ptr align 4 %2, i8 0, i64 4, i1 false)
  call void @_ZN5clang14SourceLocationC2Ev(ptr noundef nonnull align 4 dereferenceable(4) %2) #9
  br label %33

33:                                               ; preds = %32, %29, %16
  %34 = getelementptr inbounds nuw %"class.clang::SourceLocation", ptr %2, i32 0, i32 0
  %35 = load i32, ptr %34, align 4
  ret i32 %35
}