; Function Attrs: mustprogress nounwind uwtable
define dso_local i32 @_ZNK5clang7TypeLoc21getTemplateKeywordLocEv(ptr noundef nonnull align 8 dereferenceable(16) %0) local_unnamed_addr #0 align 2 {
  %2 = tail call { ptr, ptr } @_ZNK5clang7TypeLoc13getAsAdjustedINS_29TemplateSpecializationTypeLocEEET_v(ptr noundef nonnull align 8 dereferenceable(16) %0)
  %3 = extractvalue { ptr, ptr } %2, 0
  %.not = icmp eq ptr %3, null
  br i1 %.not, label %4, label %.sink.split

4:                                                ; preds = %1
  %5 = tail call { ptr, ptr } @_ZNK5clang7TypeLoc13getAsAdjustedINS_38DependentTemplateSpecializationTypeLocEEET_v(ptr noundef nonnull align 8 dereferenceable(16) %0)
  %6 = extractvalue { ptr, ptr } %5, 0
  %.not5 = icmp eq ptr %6, null
  br i1 %.not5, label %9, label %.sink.split

.sink.split:                                      ; preds = %4, %1
  %.sink = phi { ptr, ptr } [ %2, %1 ], [ %5, %4 ]
  %.sink7 = phi i64 [ 4, %1 ], [ 20, %4 ]
  %7 = extractvalue { ptr, ptr } %.sink, 1
  %8 = getelementptr inbounds nuw i8, ptr %7, i64 %.sink7
  %.sroa.0.0.copyload.i1 = load i32, ptr %8, align 4
  br label %9

9:                                                ; preds = %.sink.split, %4
  %.sroa.04.0 = phi i32 [ 0, %4 ], [ %.sroa.0.0.copyload.i1, %.sink.split ]
  ret i32 %.sroa.04.0
}